target datalayout = "e-m:e-p270:32:32-p271:32:32-p272:64:64-i64:64-i128:128-f80:128-n8:16:32:64-S128"
target triple = "x86_64-pc-linux-gnu"

@.str = private unnamed_addr constant [2 x i8] c"=\00", align 1
@.str.1 = private unnamed_addr constant [7 x i8] c"inline\00", align 1
@do_inline = internal global i8 0, align 1
@stderr = external global ptr, align 8
@.str.2 = private unnamed_addr constant [37 x i8] c"boolean argument parsing failed: %s\0A\00", align 1
@.str.3 = private unnamed_addr constant [27 x i8] c"option parsing failed: %s\0A\00", align 1
@hotblocks = internal global ptr null, align 8

; Function Attrs: nounwind sspstrong uwtable
define internal void @plugin_init() #0 {
  %1 = call ptr @g_hash_table_new(ptr noundef @exec_count_hash, ptr noundef @exec_count_equal)
  store ptr %1, ptr @hotblocks, align 8
  ret void
}

; Function Attrs: inlinehint nounwind sspstrong uwtable
define internal void @glib_auto_cleanup_GStrv(ptr noundef %0) #3 {
  %2 = alloca ptr, align 8
  store ptr %0, ptr %2, align 8
  %3 = load ptr, ptr %2, align 8
  %4 = load ptr, ptr %3, align 8
  %5 = icmp ne ptr %4, null
  br i1 %5, label %6, label %9

6:                                                ; preds = %1
  %7 = load ptr, ptr %2, align 8
  %8 = load ptr, ptr %7, align 8
  call void @g_strfreev(ptr noundef %8)
  br label %9

9:                                                ; preds = %6, %1
  ret void
}

; Function Attrs: nounwind sspstrong uwtable
define i32 @qemu_plugin_install(i64 noundef %0, ptr noundef %1, i32 noundef %2, ptr noundef %3) #0 {
  %5 = alloca i32, align 4
  %6 = alloca i64, align 8
  %7 = alloca ptr, align 8
  %8 = alloca i32, align 4
  %9 = alloca ptr, align 8
  %10 = alloca i32, align 4
  %11 = alloca i32, align 4
  %12 = alloca ptr, align 8
  %13 = alloca ptr, align 8
  store i64 %0, ptr %6, align 8
  store ptr %1, ptr %7, align 8
  store i32 %2, ptr %8, align 4
  store ptr %3, ptr %9, align 8
  call void @llvm.lifetime.start.p0(i64 4, ptr %10) #9
  store i32 0, ptr %10, align 4
  br label %14

14:                                               ; preds = %53, %4
  %15 = load i32, ptr %10, align 4
  %16 = load i32, ptr %8, align 4
  %17 = icmp slt i32 %15, %16
  br i1 %17, label %19, label %18

18:                                               ; preds = %14
  store i32 2, ptr %11, align 4
  br label %56

19:                                               ; preds = %14
  call void @llvm.lifetime.start.p0(i64 8, ptr %12) #9
  %20 = load ptr, ptr %9, align 8
  %21 = load i32, ptr %10, align 4
  %22 = sext i32 %21 to i64
  %23 = getelementptr inbounds ptr, ptr %20, i64 %22
  %24 = load ptr, ptr %23, align 8
  store ptr %24, ptr %12, align 8
  call void @llvm.lifetime.start.p0(i64 8, ptr %13) #9
  %25 = load ptr, ptr %12, align 8
  %26 = call ptr @g_strsplit(ptr noundef %25, ptr noundef @.str, i32 noundef 2)
  store ptr %26, ptr %13, align 8
  %27 = load ptr, ptr %13, align 8
  %28 = getelementptr inbounds ptr, ptr %27, i64 0
  %29 = load ptr, ptr %28, align 8
  %30 = call i32 @g_strcmp0(ptr noundef %29, ptr noundef @.str.1)
  %31 = icmp eq i32 %30, 0
  br i1 %31, label %32, label %45

32:                                               ; preds = %19
  %33 = load ptr, ptr %13, align 8
  %34 = getelementptr inbounds ptr, ptr %33, i64 0
  %35 = load ptr, ptr %34, align 8
  %36 = load ptr, ptr %13, align 8
  %37 = getelementptr inbounds ptr, ptr %36, i64 1
  %38 = load ptr, ptr %37, align 8
  %39 = call zeroext i1 @qemu_plugin_bool_parse(ptr noundef %35, ptr noundef %38, ptr noundef @do_inline)
  br i1 %39, label %44, label %40

40:                                               ; preds = %32
  %41 = load ptr, ptr @stderr, align 8
  %42 = load ptr, ptr %12, align 8
  %43 = call i32 (ptr, ptr, ...) @fprintf(ptr noundef %41, ptr noundef @.str.2, ptr noundef %42) #9
  store i32 -1, ptr %5, align 4
  store i32 1, ptr %11, align 4
  br label %50

44:                                               ; preds = %32
  br label %49

45:                                               ; preds = %19
  %46 = load ptr, ptr @stderr, align 8
  %47 = load ptr, ptr %12, align 8
  %48 = call i32 (ptr, ptr, ...) @fprintf(ptr noundef %46, ptr noundef @.str.3, ptr noundef %47) #9
  store i32 -1, ptr %5, align 4
  store i32 1, ptr %11, align 4
  br label %50

49:                                               ; preds = %44
  store i32 0, ptr %11, align 4
  br label %50

50:                                               ; preds = %49, %45, %40
  call void @glib_auto_cleanup_GStrv(ptr noundef %13)
  call void @llvm.lifetime.end.p0(i64 8, ptr %13) #9
  call void @llvm.lifetime.end.p0(i64 8, ptr %12) #9
  %51 = load i32, ptr %11, align 4
  switch i32 %51, label %56 [
    i32 0, label %52
  ]

52:                                               ; preds = %50
  br label %53

53:                                               ; preds = %52
  %54 = load i32, ptr %10, align 4
  %55 = add i32 %54, 1
  store i32 %55, ptr %10, align 4
  br label %14, !llvm.loop !3

56:                                               ; preds = %50, %18
  call void @llvm.lifetime.end.p0(i64 4, ptr %10) #9
  %57 = load i32, ptr %11, align 4
  switch i32 %57, label %63 [
    i32 2, label %58
    i32 1, label %61
  ]

58:                                               ; preds = %56
  call void @plugin_init()
  %59 = load i64, ptr %6, align 8
  call void @qemu_plugin_register_vcpu_tb_trans_cb(i64 noundef %59, ptr noundef @vcpu_tb_trans)
  %60 = load i64, ptr %6, align 8
  call void @qemu_plugin_register_atexit_cb(i64 noundef %60, ptr noundef @plugin_exit, ptr noundef null)
  store i32 0, ptr %5, align 4
  br label %61

61:                                               ; preds = %58, %56
  %62 = load i32, ptr %5, align 4
  ret i32 %62

63:                                               ; preds = %56
  unreachable
}